; ModuleID = '52/5743.cpp'
source_filename = "52/5743.cpp"
target datalayout = "e-m:e-p270:32:32-p271:32:32-p272:64:64-i64:64-f80:128-n8:16:32:64-S128"
target triple = "x86_64-pc-linux-gnu"

%"class.std::ios_base::Init" = type { i8 }
%"class.std::basic_ostream" = type { i32 (...)**, %"class.std::basic_ios" }
%"class.std::basic_ios" = type { %"class.std::ios_base", %"class.std::basic_ostream"*, i8, i8, %"class.std::basic_streambuf"*, %"class.std::ctype"*, %"class.std::num_put"*, %"class.std::num_get"* }
%"class.std::ios_base" = type { i32 (...)**, i64, i64, i32, i32, i32, %"struct.std::ios_base::_Callback_list"*, %"struct.std::ios_base::_Words", [8 x %"struct.std::ios_base::_Words"], i32, %"struct.std::ios_base::_Words"*, %"class.std::locale" }
%"struct.std::ios_base::_Callback_list" = type { %"struct.std::ios_base::_Callback_list"*, void (i32, %"class.std::ios_base"*, i32)*, i32, i32 }
%"struct.std::ios_base::_Words" = type { i8*, i64 }
%"class.std::locale" = type { %"class.std::locale::_Impl"* }
%"class.std::locale::_Impl" = type { i32, %"class.std::locale::facet"**, i64, %"class.std::locale::facet"**, i8** }
%"class.std::locale::facet" = type <{ i32 (...)**, i32, [4 x i8] }>
%"class.std::basic_streambuf" = type { i32 (...)**, i8*, i8*, i8*, i8*, i8*, i8*, %"class.std::locale" }
%"class.std::ctype" = type <{ %"class.std::locale::facet.base", [4 x i8], %struct.__locale_struct*, i8, [7 x i8], i32*, i32*, i16*, i8, [256 x i8], [256 x i8], i8, [6 x i8] }>
%"class.std::locale::facet.base" = type <{ i32 (...)**, i32 }>
%struct.__locale_struct = type { [13 x %struct.__locale_data*], i16*, i32*, i32*, [13 x i8*] }
%struct.__locale_data = type opaque
%"class.std::num_put" = type { %"class.std::locale::facet.base", [4 x i8] }
%"class.std::num_get" = type { %"class.std::locale::facet.base", [4 x i8] }

@_ZStL8__ioinit = internal global %"class.std::ios_base::Init" zeroinitializer, align 1
@__dso_handle = external hidden global i8
@.str = private unnamed_addr constant [5 x i8] c"%d%d\00", align 1
@.str.1 = private unnamed_addr constant [3 x i8] c"%d\00", align 1
@_ZSt4cout = external dso_local global %"class.std::basic_ostream", align 8
@.str.2 = private unnamed_addr constant [2 x i8] c" \00", align 1
@.str.3 = private unnamed_addr constant [2 x i8] c"\0A\00", align 1
@llvm.global_ctors = appending global [1 x { i32, void ()*, i8* }] [{ i32, void ()*, i8* } { i32 65535, void ()* @_GLOBAL__sub_I_5743.cpp, i8* null }]

; Function Attrs: noinline uwtable
define internal void @__cxx_global_var_init() #0 section ".text.startup" {
  call void @_ZNSt8ios_base4InitC1Ev(%"class.std::ios_base::Init"* @_ZStL8__ioinit)
  %1 = call i32 @__cxa_atexit(void (i8*)* bitcast (void (%"class.std::ios_base::Init"*)* @_ZNSt8ios_base4InitD1Ev to void (i8*)*), i8* getelementptr inbounds (%"class.std::ios_base::Init", %"class.std::ios_base::Init"* @_ZStL8__ioinit, i32 0, i32 0), i8* @__dso_handle) #3
  ret void
}

declare dso_local void @_ZNSt8ios_base4InitC1Ev(%"class.std::ios_base::Init"*) unnamed_addr #1

; Function Attrs: nounwind
declare dso_local void @_ZNSt8ios_base4InitD1Ev(%"class.std::ios_base::Init"*) unnamed_addr #2

; Function Attrs: nounwind
declare dso_local i32 @__cxa_atexit(void (i8*)*, i8*, i8*) #3

; Function Attrs: noinline norecurse uwtable
define dso_local i32 @main() #4 {
  %1 = alloca i32, align 4
  %2 = alloca [100 x i32], align 16
  %3 = alloca i32, align 4
  %4 = alloca i32, align 4
  %5 = alloca i32, align 4
  %6 = alloca i32, align 4
  %7 = alloca i32, align 4
  store i32 0, i32* %1, align 4
  %8 = call i32 (i8*, ...) @__isoc99_scanf(i8* getelementptr inbounds ([5 x i8], [5 x i8]* @.str, i64 0, i64 0), i32* %3, i32* %4)
  store i32 0, i32* %5, align 4
  br label %9

9:                                                ; preds = %18, %0
  %10 = load i32, i32* %5, align 4
  %11 = load i32, i32* %3, align 4
  %12 = icmp slt i32 %10, %11
  br i1 %12, label %13, label %21

13:                                               ; preds = %9
  %14 = load i32, i32* %5, align 4
  %15 = sext i32 %14 to i64
  %16 = getelementptr inbounds [100 x i32], [100 x i32]* %2, i64 0, i64 %15
  %17 = call i32 (i8*, ...) @__isoc99_scanf(i8* getelementptr inbounds ([3 x i8], [3 x i8]* @.str.1, i64 0, i64 0), i32* %16)
  br label %18

18:                                               ; preds = %13
  %19 = load i32, i32* %5, align 4
  %20 = add nsw i32 %19, 1
  store i32 %20, i32* %5, align 4
  br label %9

21:                                               ; preds = %9
  store i32 0, i32* %5, align 4
  br label %22

22:                                               ; preds = %53, %21
  %23 = load i32, i32* %5, align 4
  %24 = load i32, i32* %3, align 4
  %25 = load i32, i32* %4, align 4
  %26 = sub nsw i32 %24, %25
  %27 = icmp slt i32 %23, %26
  br i1 %27, label %28, label %56

28:                                               ; preds = %22
  %29 = getelementptr inbounds [100 x i32], [100 x i32]* %2, i64 0, i64 0
  %30 = load i32, i32* %29, align 16
  store i32 %30, i32* %7, align 4
  store i32 0, i32* %6, align 4
  br label %31

31:                                               ; preds = %45, %28
  %32 = load i32, i32* %6, align 4
  %33 = load i32, i32* %3, align 4
  %34 = sub nsw i32 %33, 1
  %35 = icmp slt i32 %32, %34
  br i1 %35, label %36, label %48

36:                                               ; preds = %31
  %37 = load i32, i32* %6, align 4
  %38 = add nsw i32 %37, 1
  %39 = sext i32 %38 to i64
  %40 = getelementptr inbounds [100 x i32], [100 x i32]* %2, i64 0, i64 %39
  %41 = load i32, i32* %40, align 4
  %42 = load i32, i32* %6, align 4
  %43 = sext i32 %42 to i64
  %44 = getelementptr inbounds [100 x i32], [100 x i32]* %2, i64 0, i64 %43
  store i32 %41, i32* %44, align 4
  br label %45

45:                                               ; preds = %36
  %46 = load i32, i32* %6, align 4
  %47 = add nsw i32 %46, 1
  store i32 %47, i32* %6, align 4
  br label %31

48:                                               ; preds = %31
  %49 = load i32, i32* %7, align 4
  %50 = load i32, i32* %6, align 4
  %51 = sext i32 %50 to i64
  %52 = getelementptr inbounds [100 x i32], [100 x i32]* %2, i64 0, i64 %51
  store i32 %49, i32* %52, align 4
  br label %53

53:                                               ; preds = %48
  %54 = load i32, i32* %5, align 4
  %55 = add nsw i32 %54, 1
  store i32 %55, i32* %5, align 4
  br label %22

56:                                               ; preds = %22
  %57 = getelementptr inbounds [100 x i32], [100 x i32]* %2, i64 0, i64 0
  %58 = load i32, i32* %57, align 16
  %59 = call dereferenceable(272) %"class.std::basic_ostream"* @_ZNSolsEi(%"class.std::basic_ostream"* @_ZSt4cout, i32 %58)
  store i32 1, i32* %5, align 4
  br label %60

60:                                               ; preds = %71, %56
  %61 = load i32, i32* %5, align 4
  %62 = load i32, i32* %3, align 4
  %63 = icmp slt i32 %61, %62
  br i1 %63, label %64, label %74

64:                                               ; preds = %60
  %65 = call dereferenceable(272) %"class.std::basic_ostream"* @_ZStlsISt11char_traitsIcEERSt13basic_ostreamIcT_ES5_PKc(%"class.std::basic_ostream"* dereferenceable(272) @_ZSt4cout, i8* getelementptr inbounds ([2 x i8], [2 x i8]* @.str.2, i64 0, i64 0))
  %66 = load i32, i32* %5, align 4
  %67 = sext i32 %66 to i64
  %68 = getelementptr inbounds [100 x i32], [100 x i32]* %2, i64 0, i64 %67
  %69 = load i32, i32* %68, align 4
  %70 = call dereferenceable(272) %"class.std::basic_ostream"* @_ZNSolsEi(%"class.std::basic_ostream"* %65, i32 %69)
  br label %71

71:                                               ; preds = %64
  %72 = load i32, i32* %5, align 4
  %73 = add nsw i32 %72, 1
  store i32 %73, i32* %5, align 4
  br label %60

74:                                               ; preds = %60
  %75 = call i32 (i8*, ...) @printf(i8* getelementptr inbounds ([2 x i8], [2 x i8]* @.str.3, i64 0, i64 0))
  ret i32 0
}

declare dso_local i32 @__isoc99_scanf(i8*, ...) #1

declare dso_local dereferenceable(272) %"class.std::basic_ostream"* @_ZNSolsEi(%"class.std::basic_ostream"*, i32) #1

declare dso_local dereferenceable(272) %"class.std::basic_ostream"* @_ZStlsISt11char_traitsIcEERSt13basic_ostreamIcT_ES5_PKc(%"class.std::basic_ostream"* dereferenceable(272), i8*) #1

declare dso_local i32 @printf(i8*, ...) #1

; Function Attrs: noinline uwtable
define internal void @_GLOBAL__sub_I_5743.cpp() #0 section ".text.startup" {
  call void @__cxx_global_var_init()
  ret void
}


!llvm.module.flags = !{!0}
!llvm.ident = !{!1}

!0 = !{i32 1, !"wchar_size", i32 4}
!1 = !{!"clang version 10.0.0-4ubuntu1 "}
